; Function Attrs: mustprogress uwtable
define void @_ZN6icu_7522TransliterationRuleSet7addRuleEPNS_19TransliterationRuleER10UErrorCode(ptr nocapture noundef nonnull align 8 dereferenceable(1056) %this, ptr noundef %adoptedRule, ptr noundef nonnull align 4 dereferenceable(4) %status) unnamed_addr #0 align 2 personality ptr @__gxx_personality_v0 {
entry:
  %ruleVector = getelementptr inbounds i8, ptr %this, i64 8
  %0 = load ptr, ptr %ruleVector, align 8
  tail call void @_ZN6icu_757UVector12adoptElementEPvR10UErrorCode(ptr noundef nonnull align 8 dereferenceable(40) %0, ptr noundef %adoptedRule, ptr noundef nonnull align 4 dereferenceable(4) %status)
  %1 = load i32, ptr %status, align 4
  %cmp.i = icmp slt i32 %1, 1
  br i1 %cmp.i, label %if.end, label %_ZN6icu_7512LocalPointerINS_19TransliterationRuleEED2Ev.exit7

if.end:                                           ; preds = %entry
  %vtable = load ptr, ptr %adoptedRule, align 8
  %vfn = getelementptr inbounds i8, ptr %vtable, i64 16
  %2 = load ptr, ptr %vfn, align 8
  %call6 = tail call noundef i32 %2(ptr noundef nonnull align 8 dereferenceable(136) %adoptedRule)
  %maxContextLength = getelementptr inbounds i8, ptr %this, i64 1052
  %3 = load i32, ptr %maxContextLength, align 4
  %cmp = icmp sgt i32 %call6, %3
  br i1 %cmp, label %if.then7, label %if.end9

if.then7:                                         ; preds = %if.end
  store i32 %call6, ptr %maxContextLength, align 4
  br label %if.end9

if.end9:                                          ; preds = %if.then7, %if.end
  %rules = getelementptr inbounds i8, ptr %this, i64 16
  %4 = load ptr, ptr %rules, align 8
  tail call void @uprv_free_75(ptr noundef %4)
  store ptr null, ptr %rules, align 8
  br label %_ZN6icu_7512LocalPointerINS_19TransliterationRuleEED2Ev.exit7

_ZN6icu_7512LocalPointerINS_19TransliterationRuleEED2Ev.exit7: ; preds = %if.end9, %entry
  ret void
}